; Function Attrs: mustprogress uwtable
define void @_ZN7rocksdb21EncryptedWritableFile12PrepareWriteEmmRKNS_9IOOptionsEPNS_14IODebugContextE(ptr noundef nonnull readonly align 8 captures(none) dereferenceable(64) %0, i64 noundef %1, i64 noundef %2, ptr noundef nonnull align 8 dereferenceable(84) %3, ptr noundef %4) unnamed_addr #3 align 2 {
  %6 = getelementptr inbounds nuw i8, ptr %0, i64 40
  %7 = load ptr, ptr %6, align 8, !tbaa !108
  %8 = getelementptr inbounds nuw i8, ptr %0, i64 56
  %9 = load i64, ptr %8, align 8, !tbaa !133
  %10 = add i64 %9, %1
  %11 = load ptr, ptr %7, align 8, !tbaa !13
  %12 = getelementptr inbounds nuw i8, ptr %11, i64 192
  %13 = load ptr, ptr %12, align 8
  tail call void %13(ptr noundef nonnull align 8 dereferenceable(33) %7, i64 noundef %10, i64 noundef %2, ptr noundef nonnull align 8 dereferenceable(84) %3, ptr noundef %4)
  ret void
}